target datalayout = "e-m:e-p270:32:32-p271:32:32-p272:64:64-i64:64-i128:128-f80:128-n8:16:32:64-S128"
target triple = "x86_64-pc-linux-gnu"

%struct.e_in6_addr = type { [16 x i8] }

@lowpan_context_prefs = internal global [16 x ptr] zeroinitializer, align 16
@.str.313 = private unnamed_addr constant [2 x i8] c"/\00", align 1
@.str.314 = private unnamed_addr constant [3 x i8] c"%u\00", align 1

; Function Attrs: null_pointer_is_valid sspstrong uwtable
define internal void @prefs_6lowpan_apply() #0 {
  %1 = alloca i32, align 4
  %2 = alloca %struct.e_in6_addr, align 1
  %3 = alloca ptr, align 8
  %4 = alloca ptr, align 8
  %5 = alloca i32, align 4
  %6 = alloca [48 x i8], align 16
  call void @llvm.lifetime.start.p0(i64 4, ptr %1) #15
  call void @llvm.lifetime.start.p0(i64 16, ptr %2) #15
  call void @llvm.lifetime.start.p0(i64 8, ptr %3) #15
  call void @llvm.lifetime.start.p0(i64 8, ptr %4) #15
  call void @llvm.lifetime.start.p0(i64 4, ptr %5) #15
  call void @llvm.lifetime.start.p0(i64 48, ptr %6) #15
  store i32 0, ptr %1, align 4
  br label %7

7:                                                ; preds = %46, %0
  %8 = load i32, ptr %1, align 4
  %9 = icmp slt i32 %8, 16
  br i1 %9, label %10, label %49

10:                                               ; preds = %7
  %11 = load i32, ptr %1, align 4
  %12 = sext i32 %11 to i64
  %13 = getelementptr [16 x ptr], ptr @lowpan_context_prefs, i64 0, i64 %12
  %14 = load ptr, ptr %13, align 8
  %15 = icmp ne ptr %14, null
  br i1 %15, label %17, label %16

16:                                               ; preds = %10
  br label %46

17:                                               ; preds = %10
  %18 = getelementptr inbounds [48 x i8], ptr %6, i64 0, i64 0
  %19 = load i32, ptr %1, align 4
  %20 = sext i32 %19 to i64
  %21 = getelementptr [16 x ptr], ptr @lowpan_context_prefs, i64 0, i64 %20
  %22 = load ptr, ptr %21, align 8
  %23 = call i64 @g_strlcpy(ptr noundef %18, ptr noundef %22, i64 noundef 48)
  %24 = getelementptr inbounds [48 x i8], ptr %6, i64 0, i64 0
  %25 = call ptr @strtok(ptr noundef %24, ptr noundef @.str.313) #15
  store ptr %25, ptr %3, align 8
  %26 = icmp eq ptr %25, null
  br i1 %26, label %27, label %28

27:                                               ; preds = %17
  br label %46

28:                                               ; preds = %17
  %29 = call ptr @strtok(ptr noundef null, ptr noundef @.str.313) #15
  store ptr %29, ptr %4, align 8
  %30 = icmp eq ptr %29, null
  br i1 %30, label %31, label %32

31:                                               ; preds = %28
  br label %46

32:                                               ; preds = %28
  %33 = load ptr, ptr %4, align 8
  %34 = call i32 (ptr, ptr, ...) @__isoc99_sscanf(ptr noundef %33, ptr noundef @.str.314, ptr noundef %5) #15
  %35 = icmp ne i32 %34, 1
  br i1 %35, label %36, label %37

36:                                               ; preds = %32
  br label %46

37:                                               ; preds = %32
  %38 = load ptr, ptr %3, align 8
  %39 = call zeroext i1 @str_to_ip6(ptr noundef %38, ptr noundef %2)
  br i1 %39, label %41, label %40

40:                                               ; preds = %37
  br label %46

41:                                               ; preds = %37
  %42 = load i32, ptr %1, align 4
  %43 = trunc i32 %42 to i8
  %44 = load i32, ptr %5, align 4
  %45 = trunc i32 %44 to i8
  call void @lowpan_context_insert(i8 noundef zeroext %43, i16 noundef zeroext -1, i8 noundef zeroext %45, ptr noundef %2, i32 noundef 0)
  br label %46

46:                                               ; preds = %41, %40, %36, %31, %27, %16
  %47 = load i32, ptr %1, align 4
  %48 = add i32 %47, 1
  store i32 %48, ptr %1, align 4
  br label %7, !llvm.loop !8

49:                                               ; preds = %7
  call void @llvm.lifetime.end.p0(i64 48, ptr %6) #15
  call void @llvm.lifetime.end.p0(i64 4, ptr %5) #15
  call void @llvm.lifetime.end.p0(i64 8, ptr %4) #15
  call void @llvm.lifetime.end.p0(i64 8, ptr %3) #15
  call void @llvm.lifetime.end.p0(i64 16, ptr %2) #15
  call void @llvm.lifetime.end.p0(i64 4, ptr %1) #15
  ret void
}