; Function Attrs: null_pointer_is_valid sspstrong uwtable
define internal void @prefs_6lowpan_apply() #0 {
  %1 = alloca %struct.e_in6_addr, align 1
  %2 = alloca i32, align 4
  %3 = alloca [48 x i8], align 16
  call void @llvm.lifetime.start.p0(i64 16, ptr nonnull %1) #13
  call void @llvm.lifetime.start.p0(i64 4, ptr nonnull %2) #13
  call void @llvm.lifetime.start.p0(i64 48, ptr nonnull %3) #13
  br label %4

4:                                                ; preds = %0, %22
  %indvars.iv = phi i64 [ 0, %0 ], [ %indvars.iv.next, %22 ]
  %5 = getelementptr [16 x ptr], ptr @lowpan_context_prefs, i64 0, i64 %indvars.iv
  %6 = load ptr, ptr %5, align 8
  %.not = icmp eq ptr %6, null
  br i1 %.not, label %22, label %7

7:                                                ; preds = %4
  %8 = call i64 @g_strlcpy(ptr noundef nonnull %3, ptr noundef nonnull %6, i64 noundef 48)
  %9 = call ptr @strtok(ptr noundef nonnull %3, ptr noundef nonnull @.str.313) #13
  %10 = icmp eq ptr %9, null
  br i1 %10, label %22, label %11

11:                                               ; preds = %7
  %12 = call ptr @strtok(ptr noundef null, ptr noundef nonnull @.str.313) #13
  %13 = icmp eq ptr %12, null
  br i1 %13, label %22, label %14

14:                                               ; preds = %11
  %15 = call i32 (ptr, ptr, ...) @__isoc99_sscanf(ptr noundef nonnull %12, ptr noundef nonnull @.str.314, ptr noundef nonnull %2) #13
  %.not9 = icmp eq i32 %15, 1
  br i1 %.not9, label %16, label %22

16:                                               ; preds = %14
  %17 = call zeroext i1 @str_to_ip6(ptr noundef nonnull %9, ptr noundef nonnull %1)
  br i1 %17, label %18, label %22

18:                                               ; preds = %16
  %19 = trunc i64 %indvars.iv to i8
  %20 = load i32, ptr %2, align 4
  %21 = trunc i32 %20 to i8
  call void @lowpan_context_insert(i8 noundef zeroext %19, i16 noundef zeroext -1, i8 noundef zeroext %21, ptr noundef nonnull %1, i32 noundef 0)
  br label %22

22:                                               ; preds = %16, %14, %11, %7, %4, %18
  %indvars.iv.next = add nuw nsw i64 %indvars.iv, 1
  %exitcond.not = icmp eq i64 %indvars.iv.next, 16
  br i1 %exitcond.not, label %23, label %4, !llvm.loop !27

23:                                               ; preds = %22
  call void @llvm.lifetime.end.p0(i64 48, ptr nonnull %3) #13
  call void @llvm.lifetime.end.p0(i64 4, ptr nonnull %2) #13
  call void @llvm.lifetime.end.p0(i64 16, ptr nonnull %1) #13
  ret void
}